; Function Attrs: mustprogress uwtable
define void @_ZN27grpc_ssl_server_credentials25create_security_connectorERKN9grpc_core11ChannelArgsE(ptr dead_on_unwind noalias writable sret(%"class.grpc_core::RefCountedPtr.14") align 8 %0, ptr noundef nonnull align 8 dereferenceable(96) %1, ptr nonnull readnone align 8 captures(none) %2) unnamed_addr #3 align 2 personality ptr @__gxx_personality_v0 {
  %4 = alloca %"class.grpc_core::RefCountedPtr.15", align 8
  tail call void @llvm.experimental.noalias.scope.decl(metadata !133)
  %5 = getelementptr inbounds nuw i8, ptr %1, i64 8
  %6 = atomicrmw add ptr %5, i64 1 monotonic, align 8, !noalias !133
  store ptr %1, ptr %4, align 8, !tbaa !136, !alias.scope !133
  invoke void @_Z41grpc_ssl_server_security_connector_createN9grpc_core13RefCountedPtrI23grpc_server_credentialsEE(ptr dead_on_unwind writable sret(%"class.grpc_core::RefCountedPtr.14") align 8 %0, ptr noundef nonnull %4)
          to label %7 unwind label %17

7:                                                ; preds = %3
  %8 = load ptr, ptr %4, align 8, !tbaa !136
  %.not.i = icmp eq ptr %8, null
  br i1 %.not.i, label %_ZN9grpc_core13RefCountedPtrI23grpc_server_credentialsED2Ev.exit, label %9

9:                                                ; preds = %7
  %10 = getelementptr inbounds nuw i8, ptr %8, i64 8
  %11 = atomicrmw sub ptr %10, i64 1 acq_rel, align 8
  %12 = icmp eq i64 %11, 1
  br i1 %12, label %13, label %_ZN9grpc_core13RefCountedPtrI23grpc_server_credentialsED2Ev.exit, !prof !31

13:                                               ; preds = %9
  %14 = load ptr, ptr %8, align 8, !tbaa !8
  %15 = getelementptr inbounds nuw i8, ptr %14, i64 8
  %16 = load ptr, ptr %15, align 8
  call void %16(ptr noundef nonnull align 8 dereferenceable(40) %8) #28
  br label %_ZN9grpc_core13RefCountedPtrI23grpc_server_credentialsED2Ev.exit

_ZN9grpc_core13RefCountedPtrI23grpc_server_credentialsED2Ev.exit: ; preds = %7, %9, %13
  ret void

17:                                               ; preds = %3
  %18 = landingpad { ptr, i32 }
          cleanup
  %19 = load ptr, ptr %4, align 8, !tbaa !136
  %.not.i2 = icmp eq ptr %19, null
  br i1 %.not.i2, label %_ZN9grpc_core13RefCountedPtrI23grpc_server_credentialsED2Ev.exit3, label %20

20:                                               ; preds = %17
  %21 = getelementptr inbounds nuw i8, ptr %19, i64 8
  %22 = atomicrmw sub ptr %21, i64 1 acq_rel, align 8
  %23 = icmp eq i64 %22, 1
  br i1 %23, label %24, label %_ZN9grpc_core13RefCountedPtrI23grpc_server_credentialsED2Ev.exit3, !prof !31

24:                                               ; preds = %20
  %25 = load ptr, ptr %19, align 8, !tbaa !8
  %26 = getelementptr inbounds nuw i8, ptr %25, i64 8
  %27 = load ptr, ptr %26, align 8
  call void %27(ptr noundef nonnull align 8 dereferenceable(40) %19) #28
  br label %_ZN9grpc_core13RefCountedPtrI23grpc_server_credentialsED2Ev.exit3

_ZN9grpc_core13RefCountedPtrI23grpc_server_credentialsED2Ev.exit3: ; preds = %17, %20, %24
  resume { ptr, i32 } %18
}